; Function Attrs: mustprogress uwtable
define hidden void @_ZNK4cvc58internal9TrustNode7getNodeEv(ptr dead_on_unwind noalias writable writeonly sret(%"class.cvc5::internal::NodeTemplate") align 8 captures(none) initializes((0, 8)) %0, ptr noundef nonnull readonly align 8 captures(none) dereferenceable(24) %1) local_unnamed_addr #4 align 2 {
  %3 = load i32, ptr %1, align 8, !tbaa !26
  %4 = getelementptr inbounds nuw i8, ptr %1, i64 8
  switch i32 %3, label %48 [
    i32 1, label %5
    i32 3, label %21
  ]

5:                                                ; preds = %2
  %6 = load ptr, ptr %4, align 8, !tbaa !3
  store ptr %6, ptr %0, align 8, !tbaa !3
  %7 = load i64, ptr %6, align 8
  %8 = lshr i64 %7, 40
  %9 = trunc nuw nsw i64 %8 to i32
  %10 = and i32 %9, 1048575
  %11 = icmp samesign ult i32 %10, 1048574
  br i1 %11, label %12, label %17, !prof !9

12:                                               ; preds = %5
  %13 = add i64 %7, 1099511627776
  %14 = and i64 %13, 1152920405095219200
  %15 = and i64 %7, -1152920405095219201
  %16 = or disjoint i64 %14, %15
  store i64 %16, ptr %6, align 8
  br label %_ZN4cvc58internal12NodeTemplateILb1EEC2ERKS2_.exit

17:                                               ; preds = %5
  %18 = icmp eq i32 %10, 1048574
  br i1 %18, label %19, label %_ZN4cvc58internal12NodeTemplateILb1EEC2ERKS2_.exit, !prof !10

19:                                               ; preds = %17
  %20 = or i64 %7, 1152920405095219200
  store i64 %20, ptr %6, align 8
  tail call void @_ZN4cvc58internal4expr9NodeValue20markRefCountMaxedOutEv(ptr noundef nonnull align 8 dereferenceable(24) %6)
  br label %_ZN4cvc58internal12NodeTemplateILb1EEC2ERKS2_.exit

21:                                               ; preds = %2
  tail call void @llvm.experimental.noalias.scope.decl(metadata !61)
  %22 = load ptr, ptr %4, align 8, !tbaa !3, !noalias !61
  %23 = getelementptr inbounds nuw i8, ptr %22, i64 8
  %24 = load i64, ptr %23, align 8, !noalias !61
  %25 = trunc i64 %24 to i32
  %26 = and i32 %25, 1023
  %27 = icmp eq i32 %26, 1023
  %28 = select i1 %27, i32 -1, i32 %26
  %29 = tail call noundef i32 @_ZN4cvc58internal4kind10metaKindOfENS1_6Kind_tE(i32 noundef %28), !noalias !61
  %30 = icmp eq i32 %29, 2
  %spec.select.i.i = select i1 %30, i64 2, i64 1
  %31 = getelementptr inbounds nuw i8, ptr %22, i64 24
  %32 = getelementptr inbounds nuw [0 x ptr], ptr %31, i64 0, i64 %spec.select.i.i
  %33 = load ptr, ptr %32, align 8, !tbaa !64, !noalias !61
  store ptr %33, ptr %0, align 8, !tbaa !3, !alias.scope !61
  %34 = load i64, ptr %33, align 8, !noalias !61
  %35 = lshr i64 %34, 40
  %36 = trunc nuw nsw i64 %35 to i32
  %37 = and i32 %36, 1048575
  %38 = icmp samesign ult i32 %37, 1048574
  br i1 %38, label %39, label %44, !prof !9

39:                                               ; preds = %21
  %40 = add i64 %34, 1099511627776
  %41 = and i64 %40, 1152920405095219200
  %42 = and i64 %34, -1152920405095219201
  %43 = or disjoint i64 %41, %42
  store i64 %43, ptr %33, align 8, !noalias !61
  br label %_ZN4cvc58internal12NodeTemplateILb1EEC2ERKS2_.exit

44:                                               ; preds = %21
  %45 = icmp eq i32 %37, 1048574
  br i1 %45, label %46, label %_ZN4cvc58internal12NodeTemplateILb1EEC2ERKS2_.exit, !prof !10

46:                                               ; preds = %44
  %47 = or i64 %34, 1152920405095219200
  store i64 %47, ptr %33, align 8, !noalias !61
  tail call void @_ZN4cvc58internal4expr9NodeValue20markRefCountMaxedOutEv(ptr noundef nonnull align 8 dereferenceable(24) %33), !noalias !61
  br label %_ZN4cvc58internal12NodeTemplateILb1EEC2ERKS2_.exit

48:                                               ; preds = %2
  tail call void @llvm.experimental.noalias.scope.decl(metadata !65)
  %49 = load ptr, ptr %4, align 8, !tbaa !3, !noalias !65
  %50 = getelementptr inbounds nuw i8, ptr %49, i64 8
  %51 = load i64, ptr %50, align 8, !noalias !65
  %52 = trunc i64 %51 to i32
  %53 = and i32 %52, 1023
  %54 = icmp eq i32 %53, 1023
  %55 = select i1 %54, i32 -1, i32 %53
  %56 = tail call noundef i32 @_ZN4cvc58internal4kind10metaKindOfENS1_6Kind_tE(i32 noundef %55), !noalias !65
  %57 = icmp eq i32 %56, 2
  %58 = getelementptr inbounds nuw i8, ptr %49, i64 24
  %59 = zext i1 %57 to i64
  %60 = getelementptr inbounds nuw [0 x ptr], ptr %58, i64 0, i64 %59
  %61 = load ptr, ptr %60, align 8, !tbaa !64, !noalias !65
  store ptr %61, ptr %0, align 8, !tbaa !3, !alias.scope !65
  %62 = load i64, ptr %61, align 8, !noalias !65
  %63 = lshr i64 %62, 40
  %64 = trunc nuw nsw i64 %63 to i32
  %65 = and i32 %64, 1048575
  %66 = icmp samesign ult i32 %65, 1048574
  br i1 %66, label %67, label %72, !prof !9

67:                                               ; preds = %48
  %68 = add i64 %62, 1099511627776
  %69 = and i64 %68, 1152920405095219200
  %70 = and i64 %62, -1152920405095219201
  %71 = or disjoint i64 %69, %70
  store i64 %71, ptr %61, align 8, !noalias !65
  br label %_ZN4cvc58internal12NodeTemplateILb1EEC2ERKS2_.exit

72:                                               ; preds = %48
  %73 = icmp eq i32 %65, 1048574
  br i1 %73, label %74, label %_ZN4cvc58internal12NodeTemplateILb1EEC2ERKS2_.exit, !prof !10

74:                                               ; preds = %72
  %75 = or i64 %62, 1152920405095219200
  store i64 %75, ptr %61, align 8, !noalias !65
  tail call void @_ZN4cvc58internal4expr9NodeValue20markRefCountMaxedOutEv(ptr noundef nonnull align 8 dereferenceable(24) %61), !noalias !65
  br label %_ZN4cvc58internal12NodeTemplateILb1EEC2ERKS2_.exit

_ZN4cvc58internal12NodeTemplateILb1EEC2ERKS2_.exit: ; preds = %74, %72, %67, %46, %44, %39, %19, %17, %12
  ret void
}